; Function Attrs: mustprogress nounwind null_pointer_is_valid sspstrong uwtable
define void @_ZN14SequenceDialogD2Ev(ptr noundef align 8 dereferenceable_or_null(305) initializes((0, 8), (16, 24)) %0) unnamed_addr #8 align 2 personality ptr @__gxx_personality_v0 {
  store ptr getelementptr inbounds nuw inrange(-16, 496) (i8, ptr @_ZTV14SequenceDialog, i64 16), ptr %0, align 8
  %2 = getelementptr inbounds nuw i8, ptr %0, i64 16
  store ptr getelementptr inbounds nuw inrange(-16, 64) (i8, ptr @_ZTV14SequenceDialog, i64 528), ptr %2, align 8
  %3 = getelementptr inbounds nuw i8, ptr %0, i64 160
  %4 = load ptr, ptr %3, align 8
  %5 = getelementptr inbounds nuw i8, ptr %4, i64 8
  %6 = load i32, ptr %5, align 8
  %7 = add i32 %6, -1
  store i32 %7, ptr %5, align 8
  %8 = icmp ne i32 %7, 0
  %9 = icmp eq ptr %4, null
  %or.cond.i = or i1 %9, %8
  br i1 %or.cond.i, label %_ZN12SequenceInfo5unrefEv.exit, label %10

10:                                               ; preds = %1
  tail call void @_ZN12SequenceInfoD1Ev(ptr noundef nonnull align 8 dereferenceable_or_null(12) %4) #25
  tail call void @_ZdlPvm(ptr noundef nonnull align 8 dereferenceable_or_null(12) %4, i64 noundef 16) #26
  br label %_ZN12SequenceInfo5unrefEv.exit

_ZN12SequenceInfo5unrefEv.exit:                   ; preds = %1, %10
  %11 = getelementptr inbounds nuw i8, ptr %0, i64 144
  %12 = load ptr, ptr %11, align 8
  %13 = icmp eq ptr %12, null
  br i1 %13, label %15, label %14

14:                                               ; preds = %_ZN12SequenceInfo5unrefEv.exit
  tail call void @_ZdlPvm(ptr noundef nonnull %12, i64 noundef 304) #26
  br label %15

15:                                               ; preds = %14, %_ZN12SequenceInfo5unrefEv.exit
  %16 = getelementptr inbounds nuw i8, ptr %0, i64 288
  %17 = load ptr, ptr %16, align 8
  %.not.i.i = icmp eq ptr %17, null
  br i1 %.not.i.i, label %_ZN8QPointerI15RtpStreamDialogED2Ev.exit, label %18

18:                                               ; preds = %15
  %19 = atomicrmw sub ptr %17, i32 1 seq_cst, align 4
  %.not2.i.i = icmp eq i32 %19, 1
  br i1 %.not2.i.i, label %20, label %_ZN8QPointerI15RtpStreamDialogED2Ev.exit

20:                                               ; preds = %18
  %21 = load ptr, ptr %16, align 8
  %22 = icmp eq ptr %21, null
  br i1 %22, label %_ZN8QPointerI15RtpStreamDialogED2Ev.exit, label %23

23:                                               ; preds = %20
  tail call void @_ZdlPv(ptr noundef nonnull %21) #25
  br label %_ZN8QPointerI15RtpStreamDialogED2Ev.exit

_ZN8QPointerI15RtpStreamDialogED2Ev.exit:         ; preds = %15, %18, %20, %23
  %24 = getelementptr inbounds nuw i8, ptr %0, i64 216
  tail call void @_ZN5QMenuD1Ev(ptr noundef nonnull align 8 dereferenceable_or_null(40) %24) #25
  store ptr getelementptr inbounds nuw inrange(-16, 496) (i8, ptr @_ZTV15WiresharkDialog, i64 16), ptr %0, align 8
  store ptr getelementptr inbounds nuw inrange(-16, 64) (i8, ptr @_ZTV15WiresharkDialog, i64 528), ptr %2, align 8
  %25 = getelementptr inbounds nuw i8, ptr %0, i64 112
  %26 = load ptr, ptr %25, align 8
  %.not.i.i.i.i = icmp eq ptr %26, null
  br i1 %.not.i.i.i.i, label %_ZN5QListIPvED2Ev.exit.i, label %_ZN17QArrayDataPointerIPvE5derefEv.exit.i.i.i

_ZN17QArrayDataPointerIPvE5derefEv.exit.i.i.i:    ; preds = %_ZN8QPointerI15RtpStreamDialogED2Ev.exit
  %27 = atomicrmw sub ptr %26, i32 1 seq_cst, align 4
  %.not.i.i.i = icmp eq i32 %27, 1
  br i1 %.not.i.i.i, label %28, label %_ZN5QListIPvED2Ev.exit.i

28:                                               ; preds = %_ZN17QArrayDataPointerIPvE5derefEv.exit.i.i.i
  %29 = load ptr, ptr %25, align 8
  tail call void @_ZN10QArrayData10deallocateEPS_xx(ptr noundef %29, i64 noundef 8, i64 noundef 8) #25
  br label %_ZN5QListIPvED2Ev.exit.i

_ZN5QListIPvED2Ev.exit.i:                         ; preds = %28, %_ZN17QArrayDataPointerIPvE5derefEv.exit.i.i.i, %_ZN8QPointerI15RtpStreamDialogED2Ev.exit
  %30 = getelementptr inbounds nuw i8, ptr %0, i64 88
  %31 = load ptr, ptr %30, align 8
  %.not.i.i.i1.i = icmp eq ptr %31, null
  br i1 %.not.i.i.i1.i, label %_ZN15WiresharkDialogD2Ev.exit, label %_ZN17QArrayDataPointerIDsE5derefEv.exit.i.i.i

_ZN17QArrayDataPointerIDsE5derefEv.exit.i.i.i:    ; preds = %_ZN5QListIPvED2Ev.exit.i
  %32 = atomicrmw sub ptr %31, i32 1 seq_cst, align 4
  %.not.i.i2.i = icmp eq i32 %32, 1
  br i1 %.not.i.i2.i, label %33, label %_ZN15WiresharkDialogD2Ev.exit

33:                                               ; preds = %_ZN17QArrayDataPointerIDsE5derefEv.exit.i.i.i
  %34 = load ptr, ptr %30, align 8
  tail call void @_ZN10QArrayData10deallocateEPS_xx(ptr noundef %34, i64 noundef 2, i64 noundef 8) #25
  br label %_ZN15WiresharkDialogD2Ev.exit

_ZN15WiresharkDialogD2Ev.exit:                    ; preds = %_ZN5QListIPvED2Ev.exit.i, %_ZN17QArrayDataPointerIDsE5derefEv.exit.i.i.i, %33
  tail call void @_ZN19GeometryStateDialogD2Ev(ptr noundef align 8 dereferenceable_or_null(141) %0) #25
  ret void
}